target datalayout = "e-m:e-p270:32:32-p271:32:32-p272:64:64-i64:64-i128:128-f80:128-n8:16:32:64-S128"
target triple = "x86_64-unknown-linux-gnu"

%"class.absl::time_internal::cctz::detail::civil_time" = type { %"struct.absl::time_internal::cctz::detail::fields" }
%"struct.absl::time_internal::cctz::detail::fields" = type <{ i64, i8, i8, i8, i8, i8, [3 x i8] }>
%struct.tm = type { i32, i32, i32, i32, i32, i32, i32, i32, i32, i64, ptr }

; Function Attrs: mustprogress nounwind uwtable
define internal noundef ptr @_ZN4absl13time_internal4cctz12_GLOBAL__N_110local_timeEPKlP2tm(ptr noundef %timep, ptr noundef %result) #3 {
entry:
  %timep.addr = alloca ptr, align 8
  %result.addr = alloca ptr, align 8
  store ptr %timep, ptr %timep.addr, align 8
  store ptr %result, ptr %result.addr, align 8
  %0 = load ptr, ptr %timep.addr, align 8
  %1 = load ptr, ptr %result.addr, align 8
  %call = call ptr @localtime_r(ptr noundef %0, ptr noundef %1) #5
  ret ptr %call
}

; Function Attrs: mustprogress nounwind uwtable
define linkonce_odr dso_local noundef i32 @_ZNK4absl13time_internal4cctz6detail10civil_timeINS2_10second_tagEE6secondEv(ptr noundef nonnull align 8 dereferenceable(16) %this) #3 comdat align 2 {
entry:
  %this.addr = alloca ptr, align 8
  store ptr %this, ptr %this.addr, align 8
  %this1 = load ptr, ptr %this.addr, align 8
  %f_ = getelementptr inbounds %"class.absl::time_internal::cctz::detail::civil_time", ptr %this1, i32 0, i32 0
  %ss = getelementptr inbounds %"struct.absl::time_internal::cctz::detail::fields", ptr %f_, i32 0, i32 5
  %0 = load i8, ptr %ss, align 4
  %conv = sext i8 %0 to i32
  ret i32 %conv
}

; Function Attrs: mustprogress nounwind uwtable
define linkonce_odr dso_local noundef i32 @_ZNK4absl13time_internal4cctz6detail10civil_timeINS2_10second_tagEE6minuteEv(ptr noundef nonnull align 8 dereferenceable(16) %this) #3 comdat align 2 {
entry:
  %this.addr = alloca ptr, align 8
  store ptr %this, ptr %this.addr, align 8
  %this1 = load ptr, ptr %this.addr, align 8
  %f_ = getelementptr inbounds %"class.absl::time_internal::cctz::detail::civil_time", ptr %this1, i32 0, i32 0
  %mm = getelementptr inbounds %"struct.absl::time_internal::cctz::detail::fields", ptr %f_, i32 0, i32 4
  %0 = load i8, ptr %mm, align 1
  %conv = sext i8 %0 to i32
  ret i32 %conv
}

; Function Attrs: mustprogress nounwind uwtable
define linkonce_odr dso_local noundef i32 @_ZNK4absl13time_internal4cctz6detail10civil_timeINS2_10second_tagEE4hourEv(ptr noundef nonnull align 8 dereferenceable(16) %this) #3 comdat align 2 {
entry:
  %this.addr = alloca ptr, align 8
  store ptr %this, ptr %this.addr, align 8
  %this1 = load ptr, ptr %this.addr, align 8
  %f_ = getelementptr inbounds %"class.absl::time_internal::cctz::detail::civil_time", ptr %this1, i32 0, i32 0
  %hh = getelementptr inbounds %"struct.absl::time_internal::cctz::detail::fields", ptr %f_, i32 0, i32 3
  %0 = load i8, ptr %hh, align 2
  %conv = sext i8 %0 to i32
  ret i32 %conv
}

; Function Attrs: mustprogress nounwind uwtable
define linkonce_odr dso_local noundef i32 @_ZNK4absl13time_internal4cctz6detail10civil_timeINS2_10second_tagEE3dayEv(ptr noundef nonnull align 8 dereferenceable(16) %this) #3 comdat align 2 {
entry:
  %this.addr = alloca ptr, align 8
  store ptr %this, ptr %this.addr, align 8
  %this1 = load ptr, ptr %this.addr, align 8
  %f_ = getelementptr inbounds %"class.absl::time_internal::cctz::detail::civil_time", ptr %this1, i32 0, i32 0
  %d = getelementptr inbounds %"struct.absl::time_internal::cctz::detail::fields", ptr %f_, i32 0, i32 2
  %0 = load i8, ptr %d, align 1
  %conv = sext i8 %0 to i32
  ret i32 %conv
}

; Function Attrs: mustprogress nounwind uwtable
define linkonce_odr dso_local noundef i32 @_ZNK4absl13time_internal4cctz6detail10civil_timeINS2_10second_tagEE5monthEv(ptr noundef nonnull align 8 dereferenceable(16) %this) #3 comdat align 2 {
entry:
  %this.addr = alloca ptr, align 8
  store ptr %this, ptr %this.addr, align 8
  %this1 = load ptr, ptr %this.addr, align 8
  %f_ = getelementptr inbounds %"class.absl::time_internal::cctz::detail::civil_time", ptr %this1, i32 0, i32 0
  %m = getelementptr inbounds %"struct.absl::time_internal::cctz::detail::fields", ptr %f_, i32 0, i32 1
  %0 = load i8, ptr %m, align 8
  %conv = sext i8 %0 to i32
  ret i32 %conv
}

; Function Attrs: mustprogress nounwind uwtable
define linkonce_odr dso_local noundef i64 @_ZNK4absl13time_internal4cctz6detail10civil_timeINS2_10second_tagEE4yearEv(ptr noundef nonnull align 8 dereferenceable(16) %this) #3 comdat align 2 {
entry:
  %this.addr = alloca ptr, align 8
  store ptr %this, ptr %this.addr, align 8
  %this1 = load ptr, ptr %this.addr, align 8
  %f_ = getelementptr inbounds %"class.absl::time_internal::cctz::detail::civil_time", ptr %this1, i32 0, i32 0
  %y = getelementptr inbounds %"struct.absl::time_internal::cctz::detail::fields", ptr %f_, i32 0, i32 0
  %0 = load i64, ptr %y, align 8
  ret i64 %0
}

; Function Attrs: mustprogress nounwind uwtable
define internal noundef zeroext i1 @_ZN4absl13time_internal4cctz12_GLOBAL__N_19make_timeERKNS1_6detail10civil_timeINS3_10second_tagEEEiPlP2tm(ptr noundef nonnull align 8 dereferenceable(16) %cs, i32 noundef %is_dst, ptr noundef %t, ptr noundef %tm) #3 {
entry:
  %retval = alloca i1, align 1
  %cs.addr = alloca ptr, align 8
  %is_dst.addr = alloca i32, align 4
  %t.addr = alloca ptr, align 8
  %tm.addr = alloca ptr, align 8
  %tm2 = alloca %struct.tm, align 8
  %tmp = alloca ptr, align 8
  store ptr %cs, ptr %cs.addr, align 8
  store i32 %is_dst, ptr %is_dst.addr, align 4
  store ptr %t, ptr %t.addr, align 8
  store ptr %tm, ptr %tm.addr, align 8
  %0 = load ptr, ptr %cs.addr, align 8
  %call = call noundef i64 @_ZNK4absl13time_internal4cctz6detail10civil_timeINS2_10second_tagEE4yearEv(ptr noundef nonnull align 8 dereferenceable(16) %0) #5
  %sub = sub nsw i64 %call, 1900
  %conv = trunc i64 %sub to i32
  %1 = load ptr, ptr %tm.addr, align 8
  %tm_year = getelementptr inbounds %struct.tm, ptr %1, i32 0, i32 5
  store i32 %conv, ptr %tm_year, align 4
  %2 = load ptr, ptr %cs.addr, align 8
  %call1 = call noundef i32 @_ZNK4absl13time_internal4cctz6detail10civil_timeINS2_10second_tagEE5monthEv(ptr noundef nonnull align 8 dereferenceable(16) %2) #5
  %sub2 = sub nsw i32 %call1, 1
  %3 = load ptr, ptr %tm.addr, align 8
  %tm_mon = getelementptr inbounds %struct.tm, ptr %3, i32 0, i32 4
  store i32 %sub2, ptr %tm_mon, align 8
  %4 = load ptr, ptr %cs.addr, align 8
  %call3 = call noundef i32 @_ZNK4absl13time_internal4cctz6detail10civil_timeINS2_10second_tagEE3dayEv(ptr noundef nonnull align 8 dereferenceable(16) %4) #5
  %5 = load ptr, ptr %tm.addr, align 8
  %tm_mday = getelementptr inbounds %struct.tm, ptr %5, i32 0, i32 3
  store i32 %call3, ptr %tm_mday, align 4
  %6 = load ptr, ptr %cs.addr, align 8
  %call4 = call noundef i32 @_ZNK4absl13time_internal4cctz6detail10civil_timeINS2_10second_tagEE4hourEv(ptr noundef nonnull align 8 dereferenceable(16) %6) #5
  %7 = load ptr, ptr %tm.addr, align 8
  %tm_hour = getelementptr inbounds %struct.tm, ptr %7, i32 0, i32 2
  store i32 %call4, ptr %tm_hour, align 8
  %8 = load ptr, ptr %cs.addr, align 8
  %call5 = call noundef i32 @_ZNK4absl13time_internal4cctz6detail10civil_timeINS2_10second_tagEE6minuteEv(ptr noundef nonnull align 8 dereferenceable(16) %8) #5
  %9 = load ptr, ptr %tm.addr, align 8
  %tm_min = getelementptr inbounds %struct.tm, ptr %9, i32 0, i32 1
  store i32 %call5, ptr %tm_min, align 4
  %10 = load ptr, ptr %cs.addr, align 8
  %call6 = call noundef i32 @_ZNK4absl13time_internal4cctz6detail10civil_timeINS2_10second_tagEE6secondEv(ptr noundef nonnull align 8 dereferenceable(16) %10) #5
  %11 = load ptr, ptr %tm.addr, align 8
  %tm_sec = getelementptr inbounds %struct.tm, ptr %11, i32 0, i32 0
  store i32 %call6, ptr %tm_sec, align 8
  %12 = load i32, ptr %is_dst.addr, align 4
  %13 = load ptr, ptr %tm.addr, align 8
  %tm_isdst = getelementptr inbounds %struct.tm, ptr %13, i32 0, i32 8
  store i32 %12, ptr %tm_isdst, align 8
  %14 = load ptr, ptr %tm.addr, align 8
  %call7 = call i64 @mktime(ptr noundef %14) #5
  %15 = load ptr, ptr %t.addr, align 8
  store i64 %call7, ptr %15, align 8
  %16 = load ptr, ptr %t.addr, align 8
  %17 = load i64, ptr %16, align 8
  %cmp = icmp eq i64 %17, -1
  br i1 %cmp, label %if.then, label %if.end34

if.then:                                          ; preds = %entry
  %18 = load ptr, ptr %t.addr, align 8
  %call8 = call noundef ptr @_ZN4absl13time_internal4cctz12_GLOBAL__N_110local_timeEPKlP2tm(ptr noundef %18, ptr noundef %tm2)
  store ptr %call8, ptr %tmp, align 8
  %19 = load ptr, ptr %tmp, align 8
  %cmp9 = icmp eq ptr %19, null
  br i1 %cmp9, label %if.then33, label %lor.lhs.false

lor.lhs.false:                                    ; preds = %if.then
  %20 = load ptr, ptr %tmp, align 8
  %tm_year10 = getelementptr inbounds %struct.tm, ptr %20, i32 0, i32 5
  %21 = load i32, ptr %tm_year10, align 4
  %22 = load ptr, ptr %tm.addr, align 8
  %tm_year11 = getelementptr inbounds %struct.tm, ptr %22, i32 0, i32 5
  %23 = load i32, ptr %tm_year11, align 4
  %cmp12 = icmp ne i32 %21, %23
  br i1 %cmp12, label %if.then33, label %lor.lhs.false13

lor.lhs.false13:                                  ; preds = %lor.lhs.false
  %24 = load ptr, ptr %tmp, align 8
  %tm_mon14 = getelementptr inbounds %struct.tm, ptr %24, i32 0, i32 4
  %25 = load i32, ptr %tm_mon14, align 8
  %26 = load ptr, ptr %tm.addr, align 8
  %tm_mon15 = getelementptr inbounds %struct.tm, ptr %26, i32 0, i32 4
  %27 = load i32, ptr %tm_mon15, align 8
  %cmp16 = icmp ne i32 %25, %27
  br i1 %cmp16, label %if.then33, label %lor.lhs.false17

lor.lhs.false17:                                  ; preds = %lor.lhs.false13
  %28 = load ptr, ptr %tmp, align 8
  %tm_mday18 = getelementptr inbounds %struct.tm, ptr %28, i32 0, i32 3
  %29 = load i32, ptr %tm_mday18, align 4
  %30 = load ptr, ptr %tm.addr, align 8
  %tm_mday19 = getelementptr inbounds %struct.tm, ptr %30, i32 0, i32 3
  %31 = load i32, ptr %tm_mday19, align 4
  %cmp20 = icmp ne i32 %29, %31
  br i1 %cmp20, label %if.then33, label %lor.lhs.false21

lor.lhs.false21:                                  ; preds = %lor.lhs.false17
  %32 = load ptr, ptr %tmp, align 8
  %tm_hour22 = getelementptr inbounds %struct.tm, ptr %32, i32 0, i32 2
  %33 = load i32, ptr %tm_hour22, align 8
  %34 = load ptr, ptr %tm.addr, align 8
  %tm_hour23 = getelementptr inbounds %struct.tm, ptr %34, i32 0, i32 2
  %35 = load i32, ptr %tm_hour23, align 8
  %cmp24 = icmp ne i32 %33, %35
  br i1 %cmp24, label %if.then33, label %lor.lhs.false25

lor.lhs.false25:                                  ; preds = %lor.lhs.false21
  %36 = load ptr, ptr %tmp, align 8
  %tm_min26 = getelementptr inbounds %struct.tm, ptr %36, i32 0, i32 1
  %37 = load i32, ptr %tm_min26, align 4
  %38 = load ptr, ptr %tm.addr, align 8
  %tm_min27 = getelementptr inbounds %struct.tm, ptr %38, i32 0, i32 1
  %39 = load i32, ptr %tm_min27, align 4
  %cmp28 = icmp ne i32 %37, %39
  br i1 %cmp28, label %if.then33, label %lor.lhs.false29

lor.lhs.false29:                                  ; preds = %lor.lhs.false25
  %40 = load ptr, ptr %tmp, align 8
  %tm_sec30 = getelementptr inbounds %struct.tm, ptr %40, i32 0, i32 0
  %41 = load i32, ptr %tm_sec30, align 8
  %42 = load ptr, ptr %tm.addr, align 8
  %tm_sec31 = getelementptr inbounds %struct.tm, ptr %42, i32 0, i32 0
  %43 = load i32, ptr %tm_sec31, align 8
  %cmp32 = icmp ne i32 %41, %43
  br i1 %cmp32, label %if.then33, label %if.end

if.then33:                                        ; preds = %lor.lhs.false29, %lor.lhs.false25, %lor.lhs.false21, %lor.lhs.false17, %lor.lhs.false13, %lor.lhs.false, %if.then
  store i1 false, ptr %retval, align 1
  br label %return

if.end:                                           ; preds = %lor.lhs.false29
  br label %if.end34

if.end34:                                         ; preds = %if.end, %entry
  store i1 true, ptr %retval, align 1
  br label %return

return:                                           ; preds = %if.end34, %if.then33
  %44 = load i1, ptr %retval, align 1
  ret i1 %44
}