; Function Attrs: mustprogress nounwind uwtable
define internal fastcc noundef zeroext i1 @_ZN4absl13time_internal4cctz12_GLOBAL__N_19make_timeERKNS1_6detail10civil_timeINS3_10second_tagEEEiPlP2tm(ptr nocapture noundef nonnull readonly align 8 dereferenceable(16) %cs, i32 noundef %is_dst, ptr noundef %t, ptr nocapture noundef %tm) unnamed_addr #3 {
entry:
  %tm2 = alloca %struct.tm, align 8
  %0 = load i64, ptr %cs, align 8
  %1 = trunc i64 %0 to i32
  %conv = add i32 %1, -1900
  %tm_year = getelementptr inbounds i8, ptr %tm, i64 20
  store i32 %conv, ptr %tm_year, align 4
  %m.i = getelementptr inbounds i8, ptr %cs, i64 8
  %2 = load i8, ptr %m.i, align 8
  %conv.i = sext i8 %2 to i32
  %sub2 = add nsw i32 %conv.i, -1
  %tm_mon = getelementptr inbounds i8, ptr %tm, i64 16
  store i32 %sub2, ptr %tm_mon, align 8
  %d.i = getelementptr inbounds i8, ptr %cs, i64 9
  %3 = load i8, ptr %d.i, align 1
  %conv.i27 = sext i8 %3 to i32
  %tm_mday = getelementptr inbounds i8, ptr %tm, i64 12
  store i32 %conv.i27, ptr %tm_mday, align 4
  %hh.i = getelementptr inbounds i8, ptr %cs, i64 10
  %4 = load i8, ptr %hh.i, align 2
  %conv.i28 = sext i8 %4 to i32
  %tm_hour = getelementptr inbounds i8, ptr %tm, i64 8
  store i32 %conv.i28, ptr %tm_hour, align 8
  %mm.i = getelementptr inbounds i8, ptr %cs, i64 11
  %5 = load i8, ptr %mm.i, align 1
  %conv.i29 = sext i8 %5 to i32
  %tm_min = getelementptr inbounds i8, ptr %tm, i64 4
  store i32 %conv.i29, ptr %tm_min, align 4
  %ss.i = getelementptr inbounds i8, ptr %cs, i64 12
  %6 = load i8, ptr %ss.i, align 4
  %conv.i30 = sext i8 %6 to i32
  store i32 %conv.i30, ptr %tm, align 8
  %tm_isdst = getelementptr inbounds i8, ptr %tm, i64 32
  store i32 %is_dst, ptr %tm_isdst, align 8
  %call7 = tail call i64 @mktime(ptr noundef nonnull %tm) #12
  store i64 %call7, ptr %t, align 8
  %cmp = icmp eq i64 %call7, -1
  br i1 %cmp, label %if.then, label %if.end34

if.then:                                          ; preds = %entry
  %call.i = call noundef ptr @localtime_r(ptr noundef nonnull %t, ptr noundef nonnull %tm2) #12
  %cmp9 = icmp eq ptr %call.i, null
  br i1 %cmp9, label %return, label %lor.lhs.false

lor.lhs.false:                                    ; preds = %if.then
  %tm_year10 = getelementptr inbounds i8, ptr %call.i, i64 20
  %7 = load i32, ptr %tm_year10, align 4
  %8 = load i32, ptr %tm_year, align 4
  %cmp12.not = icmp eq i32 %7, %8
  br i1 %cmp12.not, label %lor.lhs.false13, label %return

lor.lhs.false13:                                  ; preds = %lor.lhs.false
  %tm_mon14 = getelementptr inbounds i8, ptr %call.i, i64 16
  %9 = load i32, ptr %tm_mon14, align 8
  %10 = load i32, ptr %tm_mon, align 8
  %cmp16.not = icmp eq i32 %9, %10
  br i1 %cmp16.not, label %lor.lhs.false17, label %return

lor.lhs.false17:                                  ; preds = %lor.lhs.false13
  %tm_mday18 = getelementptr inbounds i8, ptr %call.i, i64 12
  %11 = load i32, ptr %tm_mday18, align 4
  %12 = load i32, ptr %tm_mday, align 4
  %cmp20.not = icmp eq i32 %11, %12
  br i1 %cmp20.not, label %lor.lhs.false21, label %return

lor.lhs.false21:                                  ; preds = %lor.lhs.false17
  %tm_hour22 = getelementptr inbounds i8, ptr %call.i, i64 8
  %13 = load i32, ptr %tm_hour22, align 8
  %14 = load i32, ptr %tm_hour, align 8
  %cmp24.not = icmp eq i32 %13, %14
  br i1 %cmp24.not, label %lor.lhs.false25, label %return

lor.lhs.false25:                                  ; preds = %lor.lhs.false21
  %tm_min26 = getelementptr inbounds i8, ptr %call.i, i64 4
  %15 = load i32, ptr %tm_min26, align 4
  %16 = load i32, ptr %tm_min, align 4
  %cmp28.not = icmp eq i32 %15, %16
  br i1 %cmp28.not, label %lor.lhs.false29, label %return

lor.lhs.false29:                                  ; preds = %lor.lhs.false25
  %17 = load i32, ptr %call.i, align 8
  %18 = load i32, ptr %tm, align 8
  %cmp32.not = icmp eq i32 %17, %18
  br i1 %cmp32.not, label %if.end34, label %return

if.end34:                                         ; preds = %lor.lhs.false29, %entry
  br label %return

return:                                           ; preds = %if.then, %lor.lhs.false, %lor.lhs.false13, %lor.lhs.false17, %lor.lhs.false21, %lor.lhs.false25, %lor.lhs.false29, %if.end34
  %retval.0 = phi i1 [ true, %if.end34 ], [ false, %lor.lhs.false29 ], [ false, %lor.lhs.false25 ], [ false, %lor.lhs.false21 ], [ false, %lor.lhs.false17 ], [ false, %lor.lhs.false13 ], [ false, %lor.lhs.false ], [ false, %if.then ]
  ret i1 %retval.0
}